; Function Attrs: nounwind uwtable
define range(i64 -64, 1) i64 @ZSTD_freeCCtx(ptr noundef %0) local_unnamed_addr #2 {
  %2 = icmp eq ptr %0, null
  br i1 %2, label %ZSTD_customFree.exit, label %3

3:                                                ; preds = %1
  %4 = getelementptr inbounds nuw i8, ptr %0, i64 928
  %5 = load i64, ptr %4, align 8, !tbaa !49
  %.not = icmp eq i64 %5, 0
  br i1 %.not, label %6, label %ZSTD_customFree.exit

6:                                                ; preds = %3
  %7 = getelementptr inbounds nuw i8, ptr %0, i64 704
  %8 = load ptr, ptr %7, align 8, !tbaa !58
  %.not.i = icmp ugt ptr %8, %0
  br i1 %.not.i, label %ZSTD_cwksp_owns_buffer.exit, label %9

9:                                                ; preds = %6
  %10 = getelementptr inbounds nuw i8, ptr %0, i64 712
  %11 = load ptr, ptr %10, align 8, !tbaa !59
  %12 = icmp uge ptr %0, %11
  br label %ZSTD_cwksp_owns_buffer.exit

ZSTD_cwksp_owns_buffer.exit:                      ; preds = %6, %9
  %.not9 = phi i1 [ true, %6 ], [ %12, %9 ]
  tail call fastcc void @ZSTD_clearAllDicts(ptr noundef nonnull %0)
  %13 = getelementptr inbounds nuw i8, ptr %0, i64 3760
  %14 = load ptr, ptr %13, align 8, !tbaa !60
  %15 = tail call i64 @ZSTDMT_freeCCtx(ptr noundef %14) #28
  store ptr null, ptr %13, align 8, !tbaa !60
  %16 = getelementptr i8, ptr %0, i64 904
  %.val.i = load ptr, ptr %16, align 8
  %17 = getelementptr i8, ptr %0, i64 912
  %.val5.i = load ptr, ptr %17, align 8
  %18 = load ptr, ptr %7, align 8, !tbaa !58
  tail call void @llvm.memset.p0.i64(ptr noundef nonnull align 8 dereferenceable(72) %7, i8 0, i64 72, i1 false)
  %.not.i.i.i = icmp eq ptr %18, null
  br i1 %.not.i.i.i, label %ZSTD_freeCCtxContent.exit, label %19

19:                                               ; preds = %ZSTD_cwksp_owns_buffer.exit
  %.not4.i.i.i = icmp eq ptr %.val.i, null
  br i1 %.not4.i.i.i, label %21, label %20

20:                                               ; preds = %19
  tail call void %.val.i(ptr noundef %.val5.i, ptr noundef nonnull %18) #28
  br label %ZSTD_freeCCtxContent.exit

21:                                               ; preds = %19
  tail call void @free(ptr noundef nonnull %18) #28
  br label %ZSTD_freeCCtxContent.exit

ZSTD_freeCCtxContent.exit:                        ; preds = %ZSTD_cwksp_owns_buffer.exit, %20, %21
  br i1 %.not9, label %22, label %ZSTD_customFree.exit

22:                                               ; preds = %ZSTD_freeCCtxContent.exit
  %.val = load ptr, ptr %16, align 8
  %.not4.i = icmp eq ptr %.val, null
  br i1 %.not4.i, label %24, label %23

23:                                               ; preds = %22
  %.val10 = load ptr, ptr %17, align 8
  tail call void %.val(ptr noundef %.val10, ptr noundef nonnull %0) #28
  br label %ZSTD_customFree.exit

24:                                               ; preds = %22
  tail call void @free(ptr noundef nonnull %0) #28
  br label %ZSTD_customFree.exit

ZSTD_customFree.exit:                             ; preds = %24, %23, %ZSTD_freeCCtxContent.exit, %3, %1
  %.0 = phi i64 [ 0, %1 ], [ -64, %3 ], [ 0, %ZSTD_freeCCtxContent.exit ], [ 0, %23 ], [ 0, %24 ]
  ret i64 %.0
}